(lp0
(Vbertrand_charlet
p1
Vhttp://linkis.com/blogspot.fr/vObDM
p2
tp3
a(g1
Vhttp://linkis.com/com/xBskq
p4
tp5
a(g1
Vhttp://linkis.com/observer.com/2015/09/esv3A
p6
tp7
a(g1
Vhttp://linkis.com/paper.li/BertrandCha/237xw
p8
tp9
a(g1
Vhttp://linkis.com/paper.li/BertrandCha/vFR0K
p10
tp11
a(g1
Vhttp://linkis.com/www.entrepreneur.com/gdN8C
p12
tp13
a(g1
Vhttp://observer.com/2015/09/ersatz-urbanism-simulacrums-of-urban-experience-in-a-suburbanizing-new-york/
p14
tp15
a(g1
Vhttp://paper.li/BertrandCharlet/1289170755?edition_id=7f3d4680-5194-11e5-b3a8-0cc47a0d15fd
p16
tp17
a(g1
Vhttp://paper.li/BertrandCharlet/1289523793?edition_id=af75c370-518c-11e5-9edb-002590a5ba2d
p18
tp19
a(g1
Vhttp://www.business2community.com/content-marketing/25-key-b2b-content-marketing-stats-infographic-01317755
p20
tp21
a(Vchrisclinewcps
p22
Vhttp://agoogleaday.com/
p23
tp24
a(g22
Vhttp://elearninginfographics.com/ultimate-guide-note-taking-class-infographic/
p25
tp26
a(g22
Vhttp://leadlearner2012.blogspot.com/2015/03/the-driving-question-behind-excellent.html?m=1
p27
tp28
a(g22
Vhttp://thejournal.com/articles/2015/04/02/the-4-cs-of-technology-integration.aspx
p29
tp30
a(g22
Vhttp://timehop.com/c/t:451831484450865152:18924665:5336153:8c760
p31
tp32
a(g22
Vhttp://www.alicekeeler.com/teachertech/2014/09/17/agoogleaday-com-your-daily-warm-up/
p33
tp34
a(g22
Vhttp://www.forbes.com/sites/billfischer/2015/03/19/are-you-an-analog-or-digital-leader/?utm_content=buffer2910c&utm_medium=social&utm_source=twitter.com&utm_campaign=buffer
p35
tp36
a(g22
Vhttp://www.inc.com/bill-carmody/i-opted-out-of-email-here-s-why-you-should-too.html
p37
tp38
a(g22
Vhttp://www.teachthought.com/teaching/why-teaching-is-the-best-job-in-the-world/
p39
tp40
a(g22
Vhttp://youtu.be/h3Tbhxz5l1k
p41
tp42
a(Vdeliciousflickr
p43
Vhttp://adequateman.deadspin.com/the-six-best-teacher-gimmicks-1727945721
p44
tp45
a(g43
Vhttp://consumerist.com/2015/09/01/lawsuit-alleges-chipotle-misleads-customers-about-use-of-gmos/?utm_source=twitter&utm_medium=socialflow
p46
tp47
a(g43
Vhttp://holykaw.alltop.com/evolution-of-the-google-logo-video?gk4
p48
tp49
a(g43
Vhttp://www.dallasnews.com/sports/texas-rangers/headlines/20150901-grant-why-rangers-prospect-joey-gallo-struggled-in-triple-a-after-first-stint-in-majors.ece?hootPostID=0fcd2eb783916574005cec10b3d6d68b
p50
tp51
a(g43
Vhttp://www.record-eagle.com/news/go/nonprofit-provides-free-staffed-water-sports-for-autistic-children/article_75912a71-0e3f-59b3-a5a9-58b68e98cec5.html
p52
tp53
a(g43
Vhttp://www.sportingnews.com/mlb/story/2015-09-01/2015-mlb-postseason-washington-nationals-mets-bryce-harper-werth-zimmerman
p54
tp55
a(g43
Vhttps://twitter.com/buster_espn/status/638878321716142080
p56
tp57
a(g43
Vhttps://twitter.com/caseyo4/status/638922961739628545
p58
tp59
a(g43
Vhttps://twitter.com/matthewbmowery/status/638877420330872832
p60
tp61
a(g43
Vhttps://twitter.com/tigerdog_1/status/638876382022373376
p62
tp63
a(Vjoerg.schreiber
p64
Vhttp://leaksource.info/2013/12/30/nsas-ant-division-catalog-of-exploits-for-nearly-every-major-software-hardware-firmware/
p65
tp66
a(g64
Vhttp://mobil.pcwelt.de/news/Sextings-Schueler-muss-1000-Euro-Schadensersatz-zahlen-Intime-Fotos-9794069.html
p67
tp68
a(g64
Vhttp://theelearningcoach.com/reviews/software/how-to-create-an-animated-video/
p69
tp70
a(g64
Vhttp://www.architectureofradio.com/
p71
tp72
a(g64
Vhttp://www.pcwelt.de/ratgeber/Wie-legal-sind-WLAN-Hotspots-in-Deutschland-9789152.html
p73
tp74
a(g64
Vhttp://www.storyboardthat.com/
p75
tp76
a(g64
Vhttp://www.whiteboardblog.co.uk/2015/08/hack-your-ipad-with-the-everything-machine-app/
p77
tp78
a(g64
Vhttp://www.zeit.de/digital/internet/2015-09/wikipedia-pr-artikel-netzwerk-enttarnt
p79
tp80
a(g64
Vhttps://appsto.re/de/2uW30.i
p81
tp82
a(g64
Vhttps://mix.office.com/Snip
p83
tp84
a(Vltschang
p85
Vhttp://dyslexia.yale.edu/TECH_ipad.html
p86
tp87
a(g85
Vhttp://www.scholastic.com/storia-school/?esp=STO/ib/20150115//img/PPCMultipShopLandingTest/Teachers/Storia/////
p88
tp89
a(g85
Vhttp://www.technokids.com/documents/support/Kidblog.pdf
p90
tp91
a(g85
Vhttp://www.theedublogger.com/2014/04/09/11-ways-to-use-symbaloo-in-the-classroom/
p92
tp93
a(g85
Vhttps://chrome.google.com/webstore/detail/opendyslexic/cdnapgfjopgaggbmfgbiinmmbdcglnam?hl=en
p94
tp95
a(g85
Vhttps://drive.google.com/drive/folders/0ByqrAI5UxSJNflhYdlBjLV9WS0tELXJ1Ul9NN0c5bkVXNjVrNGhFaVR5SFdCWHZ0Z1pBYVU
p96
tp97
a(g85
Vhttps://support.google.com/youtube/answer/183851?hl=en
p98
tp99
a(g85
Vhttps://www.noodle.com/articles/5-free-google-doc-add-ons-that-help-students-with-dyslexia
p100
tp101
a(g85
Vhttps://www.noodle.com/articles/6-google-chrome-apps-students-with-dyslexia-should-try
p102
tp103
a(g85
Vhttps://www.noodle.com/articles/7-google-chrome-extensions-that-help-students-with-dyslexia
p104
tp105
a(Vrobertag
p106
Vhttp://nsuworks.nova.edu/tqr/vol20/iss8/14/
p107
tp108
a(g106
Vhttp://smartblogs.com/education/2015/08/28/reconfiguring-the-5-year-plan-right-now-strategies-for-schools/?utm_source=brief
p109
tp110
a(g106
Vhttp://thejournal.com/articles/2015/08/28/setda-publishes-oer-case-studies-and-resources.aspx
p111
tp112
a(g106
Vhttp://www.eschoolnews.com/2015/08/31/periscope-education-651/
p113
tp114
a(g106
Vhttp://www.seattletimes.com/education-lab/for-students-with-learning-disabilities-real-life-often-is-more-satisfying-than-high-school-study-suggests/
p115
tp116
a(g106
Vhttp://www.smartbrief.com/s/2015/08/4-design-strategies-consider-improved-classroom-management-1
p117
tp118
a(g106
Vhttp://www.smartbrief.com/s/2015/08/special-education-core-teachers-collaborate-more-va-district-1
p119
tp120
a(g106
Vhttp://www.smartbrief.com/s/2015/08/teachers-co-teaching-relationship-similar-marriage-0
p121
tp122
a(g106
Vhttps://spotlight.edmodo.com/
p123
tp124
a(g106
Vhttps://us-mg6.mail.yahoo.com/neo/launch?.rand=4iubjcthuj550#9579580437
p125
tp126
a(Vtutulynn
p127
Vhttp://teachbytes.com/2012/08/05/21st-century-icebreakers-10-ways-to-get-to-know-your-students-with-technology/?utm_source=buffer
p128
tp129
a(g127
Vhttp://techmunoz.edublogs.org/2011/11/07/teaching-copyright-to-middle-school-students/
p130
tp131
a(g127
Vhttp://techweb.apps.sparcc.org/home
p132
tp133
a(g127
Vhttp://techweb.apps.sparcc.org/resources
p134
tp135
a(g127
Vhttp://www.newyorkfed.org/education/its_all_about_your_money.pdf
p136
tp137
a(g127
Vhttp://www.readwritethink.org/classroom-resources/lesson-plans/sharing-information-about-careers-31153.html
p138
tp139
a(g127
Vhttp://www.retale.com/info/salaries-in-real-time/
p140
tp141
a(g127
Vhttps://simplek12.titanpad.com/1359
p142
tp143
a(g127
Vhttps://simplek12.titanpad.com/1360
p144
tp145
a(g127
Vhttps://simplek12.titanpad.com/962
p146
tp147
a.