(dp0
Vrobertag
p1
(dp2
sVactionhero
p3
(dp4
sVdanyellg
p5
(dp6
sVnobelcode
p7
(dp8
sVyehnay
p9
(dp10
sVtutulynn
p11
(dp12
sVjoerg.schreiber
p13
(dp14
sVdeepakverma
p15
(dp16
sVltschang
p17
(dp18
sVdeliciousflickr
p19
(dp20
sVbertrand_charlet
p21
(dp22
sVchrisclinewcps
p23
(dp24
s.